target datalayout = "e-m:e-p270:32:32-p271:32:32-p272:64:64-i64:64-i128:128-f80:128-n8:16:32:64-S128"
target triple = "x86_64-pc-linux-gnu"

; Function Attrs: inlinehint nounwind uwtable
define internal zeroext i1 @can_assume_(i32 noundef %0) #2 {
  %2 = alloca i32, align 4
  store i32 %0, ptr %2, align 4
  %3 = load i32, ptr %2, align 4
  %4 = and i32 0, %3
  %5 = icmp ne i32 %4, 0
  ret i1 %5
}

; Function Attrs: nounwind uwtable
define dso_local i32 @fdt_check_prop_offset_(ptr noundef %0, i32 noundef %1) #0 {
  %3 = alloca i32, align 4
  %4 = alloca ptr, align 8
  %5 = alloca i32, align 4
  store ptr %0, ptr %4, align 8
  store i32 %1, ptr %5, align 4
  %6 = call zeroext i1 @can_assume_(i32 noundef 2)
  br i1 %6, label %16, label %7

7:                                                ; preds = %2
  %8 = load i32, ptr %5, align 4
  %9 = icmp slt i32 %8, 0
  br i1 %9, label %15, label %10

10:                                               ; preds = %7
  %11 = load i32, ptr %5, align 4
  %12 = sext i32 %11 to i64
  %13 = urem i64 %12, 4
  %14 = icmp ne i64 %13, 0
  br i1 %14, label %15, label %16

15:                                               ; preds = %10, %7
  store i32 -4, ptr %3, align 4
  br label %24

16:                                               ; preds = %10, %2
  %17 = load ptr, ptr %4, align 8
  %18 = load i32, ptr %5, align 4
  %19 = call i32 @fdt_next_tag(ptr noundef %17, i32 noundef %18, ptr noundef %5)
  %20 = icmp ne i32 %19, 3
  br i1 %20, label %21, label %22

21:                                               ; preds = %16
  store i32 -4, ptr %3, align 4
  br label %24

22:                                               ; preds = %16
  %23 = load i32, ptr %5, align 4
  store i32 %23, ptr %3, align 4
  br label %24

24:                                               ; preds = %22, %21, %15
  %25 = load i32, ptr %3, align 4
  ret i32 %25
}